; ModuleID = '50/2393.c'
source_filename = "50/2393.c"
target datalayout = "e-m:e-p270:32:32-p271:32:32-p272:64:64-i64:64-f80:128-n8:16:32:64-S128"
target triple = "x86_64-pc-linux-gnu"

@.str = private unnamed_addr constant [3 x i8] c"%d\00", align 1
@.str.1 = private unnamed_addr constant [4 x i8] c"\0A%d\00", align 1

; Function Attrs: noinline nounwind uwtable
define dso_local i32 @main() #0 {
  %1 = alloca i32, align 4
  %2 = alloca i32, align 4
  %3 = alloca [11 x i32], align 16
  %4 = alloca i32, align 4
  %5 = alloca i32, align 4
  store i32 0, i32* %1, align 4
  %6 = call i32 (i8*, ...) @__isoc99_scanf(i8* getelementptr inbounds ([3 x i8], [3 x i8]* @.str, i64 0, i64 0), i32* %2)
  %7 = load i32, i32* %2, align 4
  %8 = add nsw i32 %7, 12
  %9 = getelementptr inbounds [11 x i32], [11 x i32]* %3, i64 0, i64 0
  store i32 %8, i32* %9, align 16
  store i32 0, i32* %4, align 4
  store i32 1, i32* %5, align 4
  br label %10

10:                                               ; preds = %66, %0
  %11 = load i32, i32* %5, align 4
  %12 = icmp sle i32 %11, 11
  br i1 %12, label %13, label %69

13:                                               ; preds = %10
  %14 = load i32, i32* %5, align 4
  %15 = icmp eq i32 %14, 1
  br i1 %15, label %31, label %16

16:                                               ; preds = %13
  %17 = load i32, i32* %5, align 4
  %18 = icmp eq i32 %17, 3
  br i1 %18, label %31, label %19

19:                                               ; preds = %16
  %20 = load i32, i32* %5, align 4
  %21 = icmp eq i32 %20, 5
  br i1 %21, label %31, label %22

22:                                               ; preds = %19
  %23 = load i32, i32* %5, align 4
  %24 = icmp eq i32 %23, 7
  br i1 %24, label %31, label %25

25:                                               ; preds = %22
  %26 = load i32, i32* %5, align 4
  %27 = icmp eq i32 %26, 8
  br i1 %27, label %31, label %28

28:                                               ; preds = %25
  %29 = load i32, i32* %5, align 4
  %30 = icmp eq i32 %29, 10
  br i1 %30, label %31, label %41

31:                                               ; preds = %28, %25, %22, %19, %16, %13
  %32 = load i32, i32* %5, align 4
  %33 = sub nsw i32 %32, 1
  %34 = sext i32 %33 to i64
  %35 = getelementptr inbounds [11 x i32], [11 x i32]* %3, i64 0, i64 %34
  %36 = load i32, i32* %35, align 4
  %37 = add nsw i32 %36, 31
  %38 = load i32, i32* %5, align 4
  %39 = sext i32 %38 to i64
  %40 = getelementptr inbounds [11 x i32], [11 x i32]* %3, i64 0, i64 %39
  store i32 %37, i32* %40, align 4
  br label %65

41:                                               ; preds = %28
  %42 = load i32, i32* %5, align 4
  %43 = icmp eq i32 %42, 2
  br i1 %43, label %44, label %54

44:                                               ; preds = %41
  %45 = load i32, i32* %5, align 4
  %46 = sub nsw i32 %45, 1
  %47 = sext i32 %46 to i64
  %48 = getelementptr inbounds [11 x i32], [11 x i32]* %3, i64 0, i64 %47
  %49 = load i32, i32* %48, align 4
  %50 = add nsw i32 %49, 28
  %51 = load i32, i32* %5, align 4
  %52 = sext i32 %51 to i64
  %53 = getelementptr inbounds [11 x i32], [11 x i32]* %3, i64 0, i64 %52
  store i32 %50, i32* %53, align 4
  br label %64

54:                                               ; preds = %41
  %55 = load i32, i32* %5, align 4
  %56 = sub nsw i32 %55, 1
  %57 = sext i32 %56 to i64
  %58 = getelementptr inbounds [11 x i32], [11 x i32]* %3, i64 0, i64 %57
  %59 = load i32, i32* %58, align 4
  %60 = add nsw i32 %59, 30
  %61 = load i32, i32* %5, align 4
  %62 = sext i32 %61 to i64
  %63 = getelementptr inbounds [11 x i32], [11 x i32]* %3, i64 0, i64 %62
  store i32 %60, i32* %63, align 4
  br label %64

64:                                               ; preds = %54, %44
  br label %65

65:                                               ; preds = %64, %31
  br label %66

66:                                               ; preds = %65
  %67 = load i32, i32* %5, align 4
  %68 = add nsw i32 %67, 1
  store i32 %68, i32* %5, align 4
  br label %10

69:                                               ; preds = %10
  store i32 0, i32* %5, align 4
  br label %70

70:                                               ; preds = %93, %69
  %71 = load i32, i32* %5, align 4
  %72 = icmp sle i32 %71, 11
  br i1 %72, label %73, label %96

73:                                               ; preds = %70
  %74 = load i32, i32* %5, align 4
  %75 = sext i32 %74 to i64
  %76 = getelementptr inbounds [11 x i32], [11 x i32]* %3, i64 0, i64 %75
  %77 = load i32, i32* %76, align 4
  %78 = srem i32 %77, 7
  %79 = icmp eq i32 %78, 5
  br i1 %79, label %80, label %92

80:                                               ; preds = %73
  %81 = load i32, i32* %4, align 4
  %82 = icmp eq i32 %81, 0
  br i1 %82, label %83, label %87

83:                                               ; preds = %80
  store i32 1, i32* %4, align 4
  %84 = load i32, i32* %5, align 4
  %85 = add nsw i32 %84, 1
  %86 = call i32 (i8*, ...) @printf(i8* getelementptr inbounds ([3 x i8], [3 x i8]* @.str, i64 0, i64 0), i32 %85)
  br label %91

87:                                               ; preds = %80
  %88 = load i32, i32* %5, align 4
  %89 = add nsw i32 %88, 1
  %90 = call i32 (i8*, ...) @printf(i8* getelementptr inbounds ([4 x i8], [4 x i8]* @.str.1, i64 0, i64 0), i32 %89)
  br label %91

91:                                               ; preds = %87, %83
  br label %92

92:                                               ; preds = %91, %73
  br label %93

93:                                               ; preds = %92
  %94 = load i32, i32* %5, align 4
  %95 = add nsw i32 %94, 1
  store i32 %95, i32* %5, align 4
  br label %70

96:                                               ; preds = %70
  %97 = load i32, i32* %1, align 4
  ret i32 %97
}

declare dso_local i32 @__isoc99_scanf(i8*, ...) #1

declare dso_local i32 @printf(i8*, ...) #1


!llvm.module.flags = !{!0}
!llvm.ident = !{!1}

!0 = !{i32 1, !"wchar_size", i32 4}
!1 = !{!"clang version 10.0.0-4ubuntu1 "}
